target datalayout = "e-m:e-p270:32:32-p271:32:32-p272:64:64-i64:64-i128:128-f80:128-n8:16:32:64-S128"
target triple = "x86_64-pc-linux-gnu"

%struct.SDL_Keyboard = type { ptr, i16, [512 x i8], [512 x i8], ptr, i32, i8, i64, i32 }

@SDL_keyboard = internal global %struct.SDL_Keyboard zeroinitializer, align 8

; Function Attrs: nounwind uwtable
define hidden zeroext i1 @SDL_SendKeyboardKey(i64 noundef %0, i32 noundef %1, i32 noundef %2, i32 noundef %3, i1 noundef zeroext %4) #0 {
  %6 = alloca i64, align 8
  %7 = alloca i32, align 4
  %8 = alloca i32, align 4
  %9 = alloca i32, align 4
  %10 = alloca i8, align 1
  store i64 %0, ptr %6, align 8
  store i32 %1, ptr %7, align 4
  store i32 %2, ptr %8, align 4
  store i32 %3, ptr %9, align 4
  %11 = zext i1 %4 to i8
  store i8 %11, ptr %10, align 1
  %12 = load i64, ptr %6, align 8
  %13 = load i32, ptr %7, align 4
  %14 = load i32, ptr %8, align 4
  %15 = load i32, ptr %9, align 4
  %16 = load i8, ptr %10, align 1, !range !3, !noundef !4
  %17 = trunc i8 %16 to i1
  %18 = call zeroext i1 @SDL_SendKeyboardKeyInternal(i64 noundef %12, i32 noundef 1, i32 noundef %13, i32 noundef %14, i32 noundef %15, i1 noundef zeroext %17)
  ret i1 %18
}

; Function Attrs: nounwind uwtable
define hidden void @SDL_ResetKeyboard_REAL() #0 {
  %1 = alloca ptr, align 8
  %2 = alloca i32, align 4
  call void @llvm.lifetime.start.p0(i64 8, ptr %1) #6
  store ptr @SDL_keyboard, ptr %1, align 8
  call void @llvm.lifetime.start.p0(i64 4, ptr %2) #6
  store i32 0, ptr %2, align 4
  br label %3

3:                                                ; preds = %18, %0
  %4 = load i32, ptr %2, align 4
  %5 = icmp slt i32 %4, 512
  br i1 %5, label %6, label %21

6:                                                ; preds = %3
  %7 = load ptr, ptr %1, align 8
  %8 = getelementptr inbounds nuw %struct.SDL_Keyboard, ptr %7, i32 0, i32 3
  %9 = load i32, ptr %2, align 4
  %10 = sext i32 %9 to i64
  %11 = getelementptr inbounds [512 x i8], ptr %8, i64 0, i64 %10
  %12 = load i8, ptr %11, align 1, !range !3, !noundef !4
  %13 = trunc i8 %12 to i1
  br i1 %13, label %14, label %17

14:                                               ; preds = %6
  %15 = load i32, ptr %2, align 4
  %16 = call zeroext i1 @SDL_SendKeyboardKey(i64 noundef 0, i32 noundef 0, i32 noundef 0, i32 noundef %15, i1 noundef zeroext false)
  br label %17

17:                                               ; preds = %14, %6
  br label %18

18:                                               ; preds = %17
  %19 = load i32, ptr %2, align 4
  %20 = add nsw i32 %19, 1
  store i32 %20, ptr %2, align 4
  br label %3, !llvm.loop !8

21:                                               ; preds = %3
  call void @llvm.lifetime.end.p0(i64 4, ptr %2) #6
  call void @llvm.lifetime.end.p0(i64 8, ptr %1) #6
  ret void
}