; Function Attrs: nounwind uwtable
define hidden void @SDL_ResetKeyboard_REAL() local_unnamed_addr #0 {
  br label %1

1:                                                ; preds = %0, %8
  %indvars.iv = phi i64 [ 0, %0 ], [ %indvars.iv.next, %8 ]
  %2 = getelementptr inbounds nuw [512 x i8], ptr getelementptr inbounds nuw (i8, ptr @SDL_keyboard, i64 522), i64 0, i64 %indvars.iv
  %3 = load i8, ptr %2, align 1, !range !6, !noundef !7
  %4 = trunc nuw i8 %3 to i1
  br i1 %4, label %5, label %8

5:                                                ; preds = %1
  %6 = trunc nuw nsw i64 %indvars.iv to i32
  %7 = tail call fastcc zeroext i1 @SDL_SendKeyboardKeyInternal(i64 noundef 0, i32 noundef 1, i32 noundef 0, i32 noundef 0, i32 noundef %6, i1 noundef zeroext false)
  br label %8

8:                                                ; preds = %1, %5
  %indvars.iv.next = add nuw nsw i64 %indvars.iv, 1
  %exitcond.not = icmp eq i64 %indvars.iv.next, 512
  br i1 %exitcond.not, label %9, label %1, !llvm.loop !8

9:                                                ; preds = %8
  ret void
}